; Function Attrs: mustprogress uwtable
define noundef i32 @_ZN6icu_7512ChoiceFormat14findSubMessageERKNS_14MessagePatternEid(ptr noundef nonnull align 8 dereferenceable(127) %pattern, i32 noundef %partIndex, double noundef %number) local_unnamed_addr #1 align 2 {
entry:
  %partsLength.i = getelementptr inbounds i8, ptr %pattern, i64 96
  %0 = load i32, ptr %partsLength.i, align 8
  %add = add nsw i32 %partIndex, 2
  %parts.i.i = getelementptr inbounds i8, ptr %pattern, i64 88
  %1 = load ptr, ptr %parts.i.i, align 8
  %idxprom.i.i19 = sext i32 %add to i64
  %limitPartIndex.i20 = getelementptr inbounds %"class.icu_75::MessagePattern::Part", ptr %1, i64 %idxprom.i.i19, i32 4
  %2 = load i32, ptr %limitPartIndex.i20, align 4
  %start..i21 = tail call noundef i32 @llvm.smax.i32(i32 %2, i32 %add)
  %inc22 = add nsw i32 %start..i21, 1
  %cmp.not23 = icmp slt i32 %inc22, %0
  br i1 %cmp.not23, label %if.end.lr.ph, label %for.end

if.end.lr.ph:                                     ; preds = %entry
  %fUnion.i.i.i.i = getelementptr inbounds i8, ptr %pattern, i64 24
  %fLength.i.i.i = getelementptr inbounds i8, ptr %pattern, i64 28
  %fBuffer.i.i.i = getelementptr inbounds i8, ptr %pattern, i64 26
  %fArray.i.i.i = getelementptr inbounds i8, ptr %pattern, i64 40
  %idxprom.i30 = sext i32 %inc22 to i64
  %arrayidx.i31 = getelementptr inbounds %"class.icu_75::MessagePattern::Part", ptr %1, i64 %idxprom.i30
  %3 = load i32, ptr %arrayidx.i31, align 4
  %cmp532 = icmp eq i32 %3, 6
  br i1 %cmp532, label %for.end, label %if.end7

if.end:                                           ; preds = %if.end17
  %idxprom.i = sext i32 %inc to i64
  %arrayidx.i = getelementptr inbounds %"class.icu_75::MessagePattern::Part", ptr %5, i64 %idxprom.i
  %4 = load i32, ptr %arrayidx.i, align 4
  %cmp5 = icmp eq i32 %4, 6
  br i1 %cmp5, label %for.end, label %if.end7, !llvm.loop !11

if.end7:                                          ; preds = %if.end.lr.ph, %if.end
  %arrayidx.i35 = phi ptr [ %arrayidx.i, %if.end ], [ %arrayidx.i31, %if.end.lr.ph ]
  %partIndex.addr.02434 = phi i32 [ %inc9, %if.end ], [ %add, %if.end.lr.ph ]
  %start..i2533 = phi i32 [ %start..i, %if.end ], [ %start..i21, %if.end.lr.ph ]
  %inc2 = add nsw i32 %start..i2533, 2
  %call8 = tail call noundef double @_ZNK6icu_7514MessagePattern15getNumericValueERKNS0_4PartE(ptr noundef nonnull align 8 dereferenceable(127) %pattern, ptr noundef nonnull align 4 dereferenceable(16) %arrayidx.i35)
  %inc9 = add nsw i32 %start..i2533, 3
  %5 = load ptr, ptr %parts.i.i, align 8
  %idxprom.i.i15 = sext i32 %inc2 to i64
  %index.i = getelementptr inbounds %"class.icu_75::MessagePattern::Part", ptr %5, i64 %idxprom.i.i15, i32 1
  %6 = load i32, ptr %index.i, align 4
  %7 = load i16, ptr %fUnion.i.i.i.i, align 8
  %cmp.i.i.i.i = icmp slt i16 %7, 0
  %8 = ashr i16 %7, 5
  %shr.i.i.i.i = sext i16 %8 to i32
  %9 = load i32, ptr %fLength.i.i.i, align 4
  %cond.i.i.i = select i1 %cmp.i.i.i.i, i32 %9, i32 %shr.i.i.i.i
  %cmp.i.i = icmp ugt i32 %cond.i.i.i, %6
  br i1 %cmp.i.i, label %_ZNK6icu_7513UnicodeString6charAtEi.exit, label %cond.false

_ZNK6icu_7513UnicodeString6charAtEi.exit:         ; preds = %if.end7
  %10 = and i16 %7, 2
  %tobool.not.i.i.i = icmp eq i16 %10, 0
  %11 = load ptr, ptr %fArray.i.i.i, align 8
  %cond.i2.i.i = select i1 %tobool.not.i.i.i, ptr %11, ptr %fBuffer.i.i.i
  %idxprom.i.i16 = sext i32 %6 to i64
  %arrayidx.i.i = getelementptr inbounds i16, ptr %cond.i2.i.i, i64 %idxprom.i.i16
  %12 = load i16, ptr %arrayidx.i.i, align 2
  %cmp13 = icmp eq i16 %12, 60
  br i1 %cmp13, label %cond.true, label %cond.false

cond.true:                                        ; preds = %_ZNK6icu_7513UnicodeString6charAtEi.exit
  %cmp14 = fcmp olt double %call8, %number
  br i1 %cmp14, label %if.end17, label %for.end

cond.false:                                       ; preds = %if.end7, %_ZNK6icu_7513UnicodeString6charAtEi.exit
  %cmp15 = fcmp ugt double %call8, %number
  br i1 %cmp15, label %for.end, label %if.end17

if.end17:                                         ; preds = %cond.false, %cond.true
  %idxprom.i.i = sext i32 %inc9 to i64
  %limitPartIndex.i = getelementptr inbounds %"class.icu_75::MessagePattern::Part", ptr %5, i64 %idxprom.i.i, i32 4
  %13 = load i32, ptr %limitPartIndex.i, align 4
  %start..i = tail call noundef i32 @llvm.smax.i32(i32 %13, i32 %inc9)
  %inc = add nsw i32 %start..i, 1
  %cmp.not = icmp slt i32 %inc, %0
  br i1 %cmp.not, label %if.end, label %for.end, !llvm.loop !11

for.end:                                          ; preds = %cond.true, %cond.false, %if.end, %if.end17, %if.end.lr.ph, %entry
  %partIndex.addr.0.lcssa = phi i32 [ %add, %entry ], [ %add, %if.end.lr.ph ], [ %inc9, %if.end17 ], [ %inc9, %if.end ], [ %partIndex.addr.02434, %cond.false ], [ %partIndex.addr.02434, %cond.true ]
  ret i32 %partIndex.addr.0.lcssa
}